; Function Attrs: nounwind uwtable
define hidden void @X11_InitXsync(ptr noundef readonly captures(none) %0) local_unnamed_addr #0 {
  %2 = alloca i32, align 4
  %3 = alloca i32, align 4
  %4 = alloca i32, align 4
  %5 = alloca i32, align 4
  %6 = alloca i32, align 4
  %7 = getelementptr inbounds nuw i8, ptr %0, i64 1656
  %8 = load ptr, ptr %7, align 8
  call void @llvm.lifetime.start.p0(i64 4, ptr nonnull %4) #7
  call void @llvm.lifetime.start.p0(i64 4, ptr nonnull %5) #7
  call void @llvm.lifetime.start.p0(i64 4, ptr nonnull %6) #7
  %9 = load i32, ptr @SDL_X11_HAVE_XSYNC, align 4
  %.not = icmp eq i32 %9, 0
  br i1 %.not, label %24, label %10

10:                                               ; preds = %1
  %11 = load ptr, ptr @X11_XQueryExtension, align 8
  %12 = load ptr, ptr %8, align 8
  %13 = call i32 %11(ptr noundef %12, ptr noundef nonnull @.str, ptr noundef nonnull %6, ptr noundef nonnull %4, ptr noundef nonnull %5) #7
  %.not3 = icmp eq i32 %13, 0
  br i1 %.not3, label %24, label %14

14:                                               ; preds = %10
  %15 = load ptr, ptr %8, align 8
  call void @llvm.lifetime.start.p0(i64 4, ptr nonnull %2)
  call void @llvm.lifetime.start.p0(i64 4, ptr nonnull %3)
  store i32 5, ptr %2, align 4
  store i32 0, ptr %3, align 4
  %16 = load ptr, ptr @X11_XSyncInitialize, align 8
  %17 = call i32 %16(ptr noundef %15, ptr noundef nonnull %2, ptr noundef nonnull %3) #7
  %18 = load i32, ptr %2, align 4
  %19 = mul nsw i32 %18, 1000
  %20 = load i32, ptr %3, align 4
  %21 = add nsw i32 %19, %20
  call void @llvm.lifetime.end.p0(i64 4, ptr nonnull %2)
  call void @llvm.lifetime.end.p0(i64 4, ptr nonnull %3)
  %22 = icmp sgt i32 %21, 2999
  br i1 %22, label %23, label %24

23:                                               ; preds = %14
  store i1 true, ptr @xsync_initialized, align 1
  br label %24

24:                                               ; preds = %14, %1, %10, %23
  call void @llvm.lifetime.end.p0(i64 4, ptr nonnull %6) #7
  call void @llvm.lifetime.end.p0(i64 4, ptr nonnull %5) #7
  call void @llvm.lifetime.end.p0(i64 4, ptr nonnull %4) #7
  ret void
}